target datalayout = "e-m:e-p270:32:32-p271:32:32-p272:64:64-i64:64-i128:128-f80:128-n8:16:32:64-S128"
target triple = "x86_64-pc-linux-gnu"

%struct._object = type { %union.anon, ptr }
%union.anon = type { i64 }
%struct._frame = type { %struct._object, ptr, ptr, ptr, i32, i8, i8, ptr, ptr, [1 x ptr] }
%struct._ts = type { ptr, ptr, ptr, i64, %struct.anon.0, i32, i32, i32, i32, i32, i32, i32, i32, ptr, ptr, ptr, ptr, ptr, ptr, ptr, ptr, i32, ptr, i64, i64, ptr, i64, i32, ptr, ptr, ptr, i64, i64, ptr, ptr, ptr, %struct._err_stackitem, ptr, i64, ptr, ptr }
%struct.anon.0 = type { i32 }
%struct._err_stackitem = type { ptr, ptr }
%struct._PyLegacyEventHandler = type { %struct._object, ptr, i32 }
%struct.anon = type { i32, i32 }

@_Py_tss_tstate = external thread_local global ptr, align 8
@_Py_NoneStruct = external global %struct._object, align 8
@PyExc_SystemError = external global ptr, align 8
@.str.4 = private unnamed_addr constant [43 x i8] c"Missing frame when calling trace function.\00", align 1

; Function Attrs: alwaysinline nounwind uwtable
define internal i32 @_Py_IsImmortal(ptr noundef %0) #5 {
  %2 = alloca ptr, align 8
  store ptr %0, ptr %2, align 8, !tbaa !25
  %3 = load ptr, ptr %2, align 8, !tbaa !25
  %4 = getelementptr inbounds nuw %struct._object, ptr %3, i32 0, i32 0
  %5 = getelementptr inbounds nuw %struct.anon, ptr %4, i32 0, i32 0
  %6 = load i32, ptr %5, align 8, !tbaa !24
  %7 = icmp slt i32 %6, 0
  %8 = zext i1 %7 to i32
  ret i32 %8
}

; Function Attrs: alwaysinline nounwind uwtable
define internal void @Py_DECREF(ptr noundef %0) #5 {
  %2 = alloca ptr, align 8
  store ptr %0, ptr %2, align 8, !tbaa !25
  %3 = load ptr, ptr %2, align 8, !tbaa !25
  %4 = call i32 @_Py_IsImmortal(ptr noundef %3)
  %5 = icmp ne i32 %4, 0
  br i1 %5, label %6, label %7

6:                                                ; preds = %1
  br label %16

7:                                                ; preds = %1
  %8 = load ptr, ptr %2, align 8, !tbaa !25
  %9 = getelementptr inbounds nuw %struct._object, ptr %8, i32 0, i32 0
  %10 = getelementptr inbounds nuw %struct.anon, ptr %9, i32 0, i32 0
  %11 = load i32, ptr %10, align 8, !tbaa !24
  %12 = add i32 %11, -1
  store i32 %12, ptr %10, align 8, !tbaa !24
  %13 = icmp eq i32 %12, 0
  br i1 %13, label %14, label %16

14:                                               ; preds = %7
  %15 = load ptr, ptr %2, align 8, !tbaa !25
  call void @_Py_Dealloc(ptr noundef %15)
  br label %16

16:                                               ; preds = %6, %14, %7
  ret void
}

; Function Attrs: alwaysinline nounwind uwtable
define internal void @Py_INCREF(ptr noundef %0) #5 {
  %2 = alloca ptr, align 8
  %3 = alloca i32, align 4
  %4 = alloca i32, align 4
  store ptr %0, ptr %2, align 8, !tbaa !25
  call void @llvm.lifetime.start.p0(i64 4, ptr %3) #6
  %5 = load ptr, ptr %2, align 8, !tbaa !25
  %6 = getelementptr inbounds nuw %struct._object, ptr %5, i32 0, i32 0
  %7 = getelementptr inbounds nuw %struct.anon, ptr %6, i32 0, i32 0
  %8 = load i32, ptr %7, align 8, !tbaa !24
  store i32 %8, ptr %3, align 4, !tbaa !20
  %9 = load i32, ptr %3, align 4, !tbaa !20
  %10 = icmp slt i32 %9, 0
  br i1 %10, label %11, label %12

11:                                               ; preds = %1
  store i32 1, ptr %4, align 4
  br label %18

12:                                               ; preds = %1
  %13 = load i32, ptr %3, align 4, !tbaa !20
  %14 = add i32 %13, 1
  %15 = load ptr, ptr %2, align 8, !tbaa !25
  %16 = getelementptr inbounds nuw %struct._object, ptr %15, i32 0, i32 0
  %17 = getelementptr inbounds nuw %struct.anon, ptr %16, i32 0, i32 0
  store i32 %14, ptr %17, align 8, !tbaa !24
  store i32 0, ptr %4, align 4
  br label %18

18:                                               ; preds = %12, %11
  call void @llvm.lifetime.end.p0(i64 4, ptr %3) #6
  %19 = load i32, ptr %4, align 4
  switch i32 %19, label %21 [
    i32 0, label %20
    i32 1, label %20
  ]

20:                                               ; preds = %18, %18
  ret void

21:                                               ; preds = %18
  unreachable
}

; Function Attrs: nounwind uwtable
define internal ptr @trace_line(ptr noundef %0, ptr noundef %1, ptr noundef %2, i32 noundef %3) #0 {
  %5 = alloca ptr, align 8
  %6 = alloca ptr, align 8
  %7 = alloca ptr, align 8
  %8 = alloca ptr, align 8
  %9 = alloca i32, align 4
  %10 = alloca i32, align 4
  %11 = alloca i32, align 4
  store ptr %0, ptr %6, align 8, !tbaa !26
  store ptr %1, ptr %7, align 8, !tbaa !117
  store ptr %2, ptr %8, align 8, !tbaa !4
  store i32 %3, ptr %9, align 4, !tbaa !20
  %12 = load ptr, ptr %8, align 8, !tbaa !4
  %13 = getelementptr inbounds nuw %struct._frame, ptr %12, i32 0, i32 5
  %14 = load i8, ptr %13, align 4, !tbaa !133
  %15 = icmp ne i8 %14, 0
  br i1 %15, label %17, label %16

16:                                               ; preds = %4
  store ptr @_Py_NoneStruct, ptr %5, align 8
  br label %45

17:                                               ; preds = %4
  %18 = load i32, ptr %9, align 4, !tbaa !20
  %19 = icmp slt i32 %18, 0
  br i1 %19, label %20, label %21

20:                                               ; preds = %17
  store ptr @_Py_NoneStruct, ptr %5, align 8
  br label %45

21:                                               ; preds = %17
  %22 = load ptr, ptr %8, align 8, !tbaa !4
  call void @Py_INCREF(ptr noundef %22)
  %23 = load i32, ptr %9, align 4, !tbaa !20
  %24 = load ptr, ptr %8, align 8, !tbaa !4
  %25 = getelementptr inbounds nuw %struct._frame, ptr %24, i32 0, i32 4
  store i32 %23, ptr %25, align 8, !tbaa !134
  call void @llvm.lifetime.start.p0(i64 4, ptr %10) #6
  %26 = load ptr, ptr %6, align 8, !tbaa !26
  %27 = getelementptr inbounds nuw %struct._ts, ptr %26, i32 0, i32 15
  %28 = load ptr, ptr %27, align 8, !tbaa !114
  %29 = load ptr, ptr %6, align 8, !tbaa !26
  %30 = getelementptr inbounds nuw %struct._ts, ptr %29, i32 0, i32 17
  %31 = load ptr, ptr %30, align 8, !tbaa !115
  %32 = load ptr, ptr %8, align 8, !tbaa !4
  %33 = load ptr, ptr %7, align 8, !tbaa !117
  %34 = getelementptr inbounds nuw %struct._PyLegacyEventHandler, ptr %33, i32 0, i32 2
  %35 = load i32, ptr %34, align 8, !tbaa !121
  %36 = call i32 %28(ptr noundef %31, ptr noundef %32, i32 noundef %35, ptr noundef @_Py_NoneStruct)
  store i32 %36, ptr %10, align 4, !tbaa !20
  %37 = load ptr, ptr %8, align 8, !tbaa !4
  %38 = getelementptr inbounds nuw %struct._frame, ptr %37, i32 0, i32 4
  store i32 0, ptr %38, align 8, !tbaa !134
  %39 = load ptr, ptr %8, align 8, !tbaa !4
  call void @Py_DECREF(ptr noundef %39)
  %40 = load i32, ptr %10, align 4, !tbaa !20
  %41 = icmp ne i32 %40, 0
  br i1 %41, label %42, label %43

42:                                               ; preds = %21
  store ptr null, ptr %5, align 8
  store i32 1, ptr %11, align 4
  br label %44

43:                                               ; preds = %21
  store ptr @_Py_NoneStruct, ptr %5, align 8
  store i32 1, ptr %11, align 4
  br label %44

44:                                               ; preds = %43, %42
  call void @llvm.lifetime.end.p0(i64 4, ptr %10) #6
  br label %45

45:                                               ; preds = %44, %20, %16
  %46 = load ptr, ptr %5, align 8
  ret ptr %46
}

; Function Attrs: inlinehint nounwind uwtable
define internal ptr @_PyThreadState_GET() #2 {
  %1 = call align 8 ptr @llvm.threadlocal.address.p0(ptr align 8 @_Py_tss_tstate)
  %2 = load ptr, ptr %1, align 8, !tbaa !26
  ret ptr %2
}

; Function Attrs: nounwind uwtable
define internal ptr @sys_trace_line_func(ptr noundef %0, ptr noundef %1, i64 noundef %2, ptr noundef %3) #0 {
  %5 = alloca ptr, align 8
  %6 = alloca ptr, align 8
  %7 = alloca ptr, align 8
  %8 = alloca i64, align 8
  %9 = alloca ptr, align 8
  %10 = alloca ptr, align 8
  %11 = alloca i32, align 4
  %12 = alloca i32, align 4
  %13 = alloca ptr, align 8
  store ptr %0, ptr %6, align 8, !tbaa !117
  store ptr %1, ptr %7, align 8, !tbaa !31
  store i64 %2, ptr %8, align 8, !tbaa !29
  store ptr %3, ptr %9, align 8, !tbaa !25
  call void @llvm.lifetime.start.p0(i64 8, ptr %10) #6
  %14 = call ptr @_PyThreadState_GET()
  store ptr %14, ptr %10, align 8, !tbaa !26
  %15 = load ptr, ptr %10, align 8, !tbaa !26
  %16 = getelementptr inbounds nuw %struct._ts, ptr %15, i32 0, i32 15
  %17 = load ptr, ptr %16, align 8, !tbaa !114
  %18 = icmp eq ptr %17, null
  br i1 %18, label %19, label %20

19:                                               ; preds = %4
  store ptr @_Py_NoneStruct, ptr %5, align 8
  store i32 1, ptr %11, align 4
  br label %37

20:                                               ; preds = %4
  call void @llvm.lifetime.start.p0(i64 4, ptr %12) #6
  %21 = load ptr, ptr %7, align 8, !tbaa !31
  %22 = getelementptr ptr, ptr %21, i64 1
  %23 = load ptr, ptr %22, align 8, !tbaa !25
  %24 = call i32 @PyLong_AsInt(ptr noundef %23)
  store i32 %24, ptr %12, align 4, !tbaa !20
  call void @llvm.lifetime.start.p0(i64 8, ptr %13) #6
  %25 = call ptr @PyEval_GetFrame()
  store ptr %25, ptr %13, align 8, !tbaa !4
  %26 = load ptr, ptr %13, align 8, !tbaa !4
  %27 = icmp eq ptr %26, null
  br i1 %27, label %28, label %30

28:                                               ; preds = %20
  %29 = load ptr, ptr @PyExc_SystemError, align 8, !tbaa !25
  call void @PyErr_SetString(ptr noundef %29, ptr noundef @.str.4)
  store ptr null, ptr %5, align 8
  store i32 1, ptr %11, align 4
  br label %36

30:                                               ; preds = %20
  %31 = load ptr, ptr %10, align 8, !tbaa !26
  %32 = load ptr, ptr %6, align 8, !tbaa !117
  %33 = load ptr, ptr %13, align 8, !tbaa !4
  %34 = load i32, ptr %12, align 4, !tbaa !20
  %35 = call ptr @trace_line(ptr noundef %31, ptr noundef %32, ptr noundef %33, i32 noundef %34)
  store ptr %35, ptr %5, align 8
  store i32 1, ptr %11, align 4
  br label %36

36:                                               ; preds = %30, %28
  call void @llvm.lifetime.end.p0(i64 8, ptr %13) #6
  call void @llvm.lifetime.end.p0(i64 4, ptr %12) #6
  br label %37

37:                                               ; preds = %36, %19
  call void @llvm.lifetime.end.p0(i64 8, ptr %10) #6
  %38 = load ptr, ptr %5, align 8
  ret ptr %38
}