; Function Attrs: nounwind uwtable
define internal ptr @sys_trace_line_func(ptr noundef readonly captures(none) %0, ptr noundef readonly captures(none) %1, i64 %2, ptr readnone captures(none) %3) #0 {
  %5 = tail call align 8 ptr @llvm.threadlocal.address.p0(ptr align 8 @_Py_tss_tstate)
  %6 = load ptr, ptr %5, align 8, !tbaa !17
  %7 = getelementptr inbounds nuw i8, ptr %6, i64 88
  %8 = load ptr, ptr %7, align 8, !tbaa !107
  %9 = icmp eq ptr %8, null
  br i1 %9, label %trace_line.exit, label %10

10:                                               ; preds = %4
  %11 = getelementptr i8, ptr %1, i64 8
  %12 = load ptr, ptr %11, align 8, !tbaa !111
  %13 = tail call i32 @PyLong_AsInt(ptr noundef %12) #4
  %14 = tail call ptr @PyEval_GetFrame() #4
  %15 = icmp eq ptr %14, null
  br i1 %15, label %16, label %18

16:                                               ; preds = %10
  %17 = load ptr, ptr @PyExc_SystemError, align 8, !tbaa !111
  tail call void @PyErr_SetString(ptr noundef %17, ptr noundef nonnull @.str.4) #4
  br label %trace_line.exit

18:                                               ; preds = %10
  %19 = getelementptr inbounds nuw i8, ptr %14, i64 44
  %20 = load i8, ptr %19, align 4, !tbaa !122
  %.not.i = icmp eq i8 %20, 0
  %21 = icmp slt i32 %13, 0
  %or.cond.i = or i1 %21, %.not.i
  br i1 %or.cond.i, label %trace_line.exit, label %22

22:                                               ; preds = %18
  %23 = load i32, ptr %14, align 8, !tbaa !15
  %24 = icmp slt i32 %23, 0
  br i1 %24, label %Py_INCREF.exit.i, label %25

25:                                               ; preds = %22
  %26 = add nuw i32 %23, 1
  store i32 %26, ptr %14, align 8, !tbaa !15
  br label %Py_INCREF.exit.i

Py_INCREF.exit.i:                                 ; preds = %25, %22
  %27 = getelementptr inbounds nuw i8, ptr %14, i64 40
  store i32 %13, ptr %27, align 8, !tbaa !123
  %28 = load ptr, ptr %7, align 8, !tbaa !107
  %29 = getelementptr inbounds nuw i8, ptr %6, i64 104
  %30 = load ptr, ptr %29, align 8, !tbaa !108
  %31 = getelementptr inbounds nuw i8, ptr %0, i64 24
  %32 = load i32, ptr %31, align 8, !tbaa !102
  %33 = tail call i32 %28(ptr noundef %30, ptr noundef nonnull %14, i32 noundef %32, ptr noundef nonnull @_Py_NoneStruct) #4
  store i32 0, ptr %27, align 8, !tbaa !123
  %34 = load i32, ptr %14, align 8, !tbaa !15
  %.not.i.i = icmp sgt i32 %34, -1
  br i1 %.not.i.i, label %35, label %Py_DECREF.exit.i

35:                                               ; preds = %Py_INCREF.exit.i
  %36 = add nsw i32 %34, -1
  store i32 %36, ptr %14, align 8, !tbaa !15
  %37 = icmp eq i32 %36, 0
  br i1 %37, label %38, label %Py_DECREF.exit.i

38:                                               ; preds = %35
  tail call void @_Py_Dealloc(ptr noundef nonnull %14) #4
  br label %Py_DECREF.exit.i

Py_DECREF.exit.i:                                 ; preds = %38, %35, %Py_INCREF.exit.i
  %.not13.i = icmp eq i32 %33, 0
  %_Py_NoneStruct..i = select i1 %.not13.i, ptr @_Py_NoneStruct, ptr null
  br label %trace_line.exit

trace_line.exit:                                  ; preds = %Py_DECREF.exit.i, %18, %16, %4
  %.0 = phi ptr [ @_Py_NoneStruct, %4 ], [ null, %16 ], [ %_Py_NoneStruct..i, %Py_DECREF.exit.i ], [ @_Py_NoneStruct, %18 ]
  ret ptr %.0
}